target datalayout = "e-m:e-p270:32:32-p271:32:32-p272:64:64-i64:64-i128:128-f80:128-n8:16:32:64-S128"
target triple = "x86_64-pc-linux-gnu"

%struct.rb_data_type_struct = type { ptr, %struct.anon, ptr, ptr, i64 }
%struct.anon = type { ptr, ptr, ptr, ptr, [1 x ptr] }

@eECError = internal global i64 0, align 8
@eEC_GROUP = internal global i64 0, align 8
@rb_eRuntimeError = external global i64, align 8
@ossl_ec_group_type = internal constant %struct.rb_data_type_struct { ptr @.str.61, %struct.anon { ptr null, ptr @ossl_ec_group_free, ptr null, ptr null, [1 x ptr] zeroinitializer }, ptr null, ptr null, i64 33 }, align 8
@.str.59 = private unnamed_addr constant [28 x i8] c"EC_GROUP is not initialized\00", align 1
@.str.93 = private unnamed_addr constant [21 x i8] c"BIO_new(BIO_s_mem())\00", align 1
@.str.94 = private unnamed_addr constant [32 x i8] c"unknown format (internal error)\00", align 1

; Function Attrs: nounwind sspstrong uwtable
define internal i64 @ossl_ec_group_to_string(i64 noundef %0, i32 noundef %1) #0 {
  %3 = alloca i64, align 8
  %4 = alloca i32, align 4
  %5 = alloca ptr, align 8
  %6 = alloca ptr, align 8
  %7 = alloca i32, align 4
  %8 = alloca i64, align 8
  store i64 %0, ptr %3, align 8, !tbaa !6
  store i32 %1, ptr %4, align 4, !tbaa !10
  call void @llvm.lifetime.start.p0(i64 8, ptr %5) #19
  call void @llvm.lifetime.start.p0(i64 8, ptr %6) #19
  call void @llvm.lifetime.start.p0(i64 4, ptr %7) #19
  store i32 -1, ptr %7, align 4, !tbaa !10
  call void @llvm.lifetime.start.p0(i64 8, ptr %8) #19
  br label %9

9:                                                ; preds = %2
  %10 = load i64, ptr %3, align 8, !tbaa !6
  %11 = call ptr @rb_check_typeddata(i64 noundef %10, ptr noundef @ossl_ec_group_type)
  store ptr %11, ptr %5, align 8, !tbaa !33
  %12 = load ptr, ptr %5, align 8, !tbaa !33
  %13 = icmp eq ptr %12, null
  br i1 %13, label %14, label %16

14:                                               ; preds = %9
  %15 = load i64, ptr @eEC_GROUP, align 8, !tbaa !6
  call void (i64, ptr, ...) @ossl_raise(i64 noundef %15, ptr noundef @.str.59) #20
  unreachable

16:                                               ; preds = %9
  br label %17

17:                                               ; preds = %16
  br label %18

18:                                               ; preds = %17
  %19 = call ptr @BIO_s_mem()
  %20 = call ptr @BIO_new(ptr noundef %19)
  store ptr %20, ptr %6, align 8, !tbaa !31
  %21 = icmp ne ptr %20, null
  br i1 %21, label %24, label %22

22:                                               ; preds = %18
  %23 = load i64, ptr @eEC_GROUP, align 8, !tbaa !6
  call void (i64, ptr, ...) @ossl_raise(i64 noundef %23, ptr noundef @.str.93) #20
  unreachable

24:                                               ; preds = %18
  %25 = load i32, ptr %4, align 4, !tbaa !10
  switch i32 %25, label %34 [
    i32 0, label %26
    i32 1, label %30
  ]

26:                                               ; preds = %24
  %27 = load ptr, ptr %6, align 8, !tbaa !31
  %28 = load ptr, ptr %5, align 8, !tbaa !33
  %29 = call i32 @PEM_write_bio_ECPKParameters(ptr noundef %27, ptr noundef %28)
  store i32 %29, ptr %7, align 4, !tbaa !10
  br label %38

30:                                               ; preds = %24
  %31 = load ptr, ptr %6, align 8, !tbaa !31
  %32 = load ptr, ptr %5, align 8, !tbaa !33
  %33 = call i32 @ASN1_i2d_bio(ptr noundef @i2d_ECPKParameters, ptr noundef %31, ptr noundef %32)
  store i32 %33, ptr %7, align 4, !tbaa !10
  br label %38

34:                                               ; preds = %24
  %35 = load ptr, ptr %6, align 8, !tbaa !31
  %36 = call i32 @BIO_free(ptr noundef %35)
  %37 = load i64, ptr @rb_eRuntimeError, align 8, !tbaa !6
  call void (i64, ptr, ...) @ossl_raise(i64 noundef %37, ptr noundef @.str.94) #20
  unreachable

38:                                               ; preds = %30, %26
  %39 = load i32, ptr %7, align 4, !tbaa !10
  %40 = icmp ne i32 %39, 1
  br i1 %40, label %41, label %45

41:                                               ; preds = %38
  %42 = load ptr, ptr %6, align 8, !tbaa !31
  %43 = call i32 @BIO_free(ptr noundef %42)
  %44 = load i64, ptr @eECError, align 8, !tbaa !6
  call void (i64, ptr, ...) @ossl_raise(i64 noundef %44, ptr noundef null) #20
  unreachable

45:                                               ; preds = %38
  %46 = load ptr, ptr %6, align 8, !tbaa !31
  %47 = call i64 @ossl_membio2str(ptr noundef %46)
  store i64 %47, ptr %8, align 8, !tbaa !6
  %48 = load i64, ptr %8, align 8, !tbaa !6
  call void @llvm.lifetime.end.p0(i64 8, ptr %8) #19
  call void @llvm.lifetime.end.p0(i64 4, ptr %7) #19
  call void @llvm.lifetime.end.p0(i64 8, ptr %6) #19
  call void @llvm.lifetime.end.p0(i64 8, ptr %5) #19
  ret i64 %48
}