; Function Attrs: nounwind sspstrong uwtable
define internal fastcc i64 @ossl_ec_group_to_string(i64 noundef %0, i32 noundef range(i32 0, 2) %1) unnamed_addr #0 {
  %3 = tail call ptr @rb_check_typeddata(i64 noundef %0, ptr noundef nonnull @ossl_ec_group_type) #7
  %4 = icmp eq ptr %3, null
  br i1 %4, label %5, label %7

5:                                                ; preds = %2
  %6 = load i64, ptr @eEC_GROUP, align 8, !tbaa !6
  tail call void (i64, ptr, ...) @ossl_raise(i64 noundef %6, ptr noundef nonnull @.str.59) #9
  unreachable

7:                                                ; preds = %2
  %8 = tail call ptr @BIO_s_mem() #7
  %9 = tail call ptr @BIO_new(ptr noundef %8) #7
  %.not = icmp eq ptr %9, null
  br i1 %.not, label %10, label %12

10:                                               ; preds = %7
  %11 = load i64, ptr @eEC_GROUP, align 8, !tbaa !6
  tail call void (i64, ptr, ...) @ossl_raise(i64 noundef %11, ptr noundef nonnull @.str.93) #9
  unreachable

12:                                               ; preds = %7
  %trunc = trunc nuw i32 %1 to i1
  br i1 %trunc, label %15, label %13

13:                                               ; preds = %12
  %14 = tail call i32 @PEM_write_bio_ECPKParameters(ptr noundef nonnull %9, ptr noundef nonnull %3) #7
  br label %17

15:                                               ; preds = %12
  %16 = tail call i32 @ASN1_i2d_bio(ptr noundef nonnull @i2d_ECPKParameters, ptr noundef nonnull %9, ptr noundef nonnull %3) #7
  br label %17

17:                                               ; preds = %15, %13
  %.0 = phi i32 [ %16, %15 ], [ %14, %13 ]
  %.not13 = icmp eq i32 %.0, 1
  br i1 %.not13, label %21, label %18

18:                                               ; preds = %17
  %19 = tail call i32 @BIO_free(ptr noundef nonnull %9) #7
  %20 = load i64, ptr @eECError, align 8, !tbaa !6
  tail call void (i64, ptr, ...) @ossl_raise(i64 noundef %20, ptr noundef null) #9
  unreachable

21:                                               ; preds = %17
  %22 = tail call i64 @ossl_membio2str(ptr noundef nonnull %9) #7
  ret i64 %22
}